target datalayout = "e-m:e-p270:32:32-p271:32:32-p272:64:64-i64:64-i128:128-f80:128-n8:16:32:64-S128"
target triple = "x86_64-pc-linux-gnu"

%struct.pg_prng_state = type { i64, i64 }
%struct.BlockSamplerData = type { i32, i32, i32, i32, %struct.pg_prng_state }

; Function Attrs: nounwind uwtable
define dso_local double @sampler_random_fract(ptr noundef %0) #0 {
  %2 = alloca ptr, align 8
  %3 = alloca double, align 8
  store ptr %0, ptr %2, align 8
  call void @llvm.lifetime.start.p0(i64 8, ptr %3) #6
  br label %4

4:                                                ; preds = %7, %1
  %5 = load ptr, ptr %2, align 8
  %6 = call double @pg_prng_double(ptr noundef %5)
  store double %6, ptr %3, align 8
  br label %7

7:                                                ; preds = %4
  %8 = load double, ptr %3, align 8
  %9 = fcmp oeq double %8, 0.000000e+00
  %10 = zext i1 %9 to i32
  %11 = icmp ne i32 %10, 0
  %12 = zext i1 %11 to i32
  %13 = sext i32 %12 to i64
  %14 = call i64 @llvm.expect.i64(i64 %13, i64 0)
  %15 = icmp ne i64 %14, 0
  br i1 %15, label %4, label %16, !llvm.loop !6

16:                                               ; preds = %7
  %17 = load double, ptr %3, align 8
  call void @llvm.lifetime.end.p0(i64 8, ptr %3) #6
  ret double %17
}

; Function Attrs: nounwind uwtable
define dso_local i32 @BlockSampler_Next(ptr noundef %0) #0 {
  %2 = alloca i32, align 4
  %3 = alloca ptr, align 8
  %4 = alloca i32, align 4
  %5 = alloca i32, align 4
  %6 = alloca double, align 8
  %7 = alloca double, align 8
  %8 = alloca i32, align 4
  store ptr %0, ptr %3, align 8
  call void @llvm.lifetime.start.p0(i64 4, ptr %4) #6
  %9 = load ptr, ptr %3, align 8
  %10 = getelementptr inbounds nuw %struct.BlockSamplerData, ptr %9, i32 0, i32 0
  %11 = load i32, ptr %10, align 8
  %12 = load ptr, ptr %3, align 8
  %13 = getelementptr inbounds nuw %struct.BlockSamplerData, ptr %12, i32 0, i32 2
  %14 = load i32, ptr %13, align 8
  %15 = sub i32 %11, %14
  store i32 %15, ptr %4, align 4
  call void @llvm.lifetime.start.p0(i64 4, ptr %5) #6
  %16 = load ptr, ptr %3, align 8
  %17 = getelementptr inbounds nuw %struct.BlockSamplerData, ptr %16, i32 0, i32 1
  %18 = load i32, ptr %17, align 4
  %19 = load ptr, ptr %3, align 8
  %20 = getelementptr inbounds nuw %struct.BlockSamplerData, ptr %19, i32 0, i32 3
  %21 = load i32, ptr %20, align 4
  %22 = sub i32 %18, %21
  store i32 %22, ptr %5, align 4
  call void @llvm.lifetime.start.p0(i64 8, ptr %6) #6
  call void @llvm.lifetime.start.p0(i64 8, ptr %7) #6
  %23 = load i32, ptr %5, align 4
  %24 = load i32, ptr %4, align 4
  %25 = icmp uge i32 %23, %24
  br i1 %25, label %26, label %35

26:                                               ; preds = %1
  %27 = load ptr, ptr %3, align 8
  %28 = getelementptr inbounds nuw %struct.BlockSamplerData, ptr %27, i32 0, i32 3
  %29 = load i32, ptr %28, align 4
  %30 = add i32 %29, 1
  store i32 %30, ptr %28, align 4
  %31 = load ptr, ptr %3, align 8
  %32 = getelementptr inbounds nuw %struct.BlockSamplerData, ptr %31, i32 0, i32 2
  %33 = load i32, ptr %32, align 8
  %34 = add i32 %33, 1
  store i32 %34, ptr %32, align 8
  store i32 %33, ptr %2, align 4
  store i32 1, ptr %8, align 4
  br label %73

35:                                               ; preds = %1
  %36 = load ptr, ptr %3, align 8
  %37 = getelementptr inbounds nuw %struct.BlockSamplerData, ptr %36, i32 0, i32 4
  %38 = call double @sampler_random_fract(ptr noundef %37)
  store double %38, ptr %7, align 8
  %39 = load i32, ptr %5, align 4
  %40 = sitofp i32 %39 to double
  %41 = load i32, ptr %4, align 4
  %42 = uitofp i32 %41 to double
  %43 = fdiv double %40, %42
  %44 = fsub double 1.000000e+00, %43
  store double %44, ptr %6, align 8
  br label %45

45:                                               ; preds = %49, %35
  %46 = load double, ptr %7, align 8
  %47 = load double, ptr %6, align 8
  %48 = fcmp olt double %46, %47
  br i1 %48, label %49, label %64

49:                                               ; preds = %45
  %50 = load ptr, ptr %3, align 8
  %51 = getelementptr inbounds nuw %struct.BlockSamplerData, ptr %50, i32 0, i32 2
  %52 = load i32, ptr %51, align 8
  %53 = add i32 %52, 1
  store i32 %53, ptr %51, align 8
  %54 = load i32, ptr %4, align 4
  %55 = add i32 %54, -1
  store i32 %55, ptr %4, align 4
  %56 = load i32, ptr %5, align 4
  %57 = sitofp i32 %56 to double
  %58 = load i32, ptr %4, align 4
  %59 = uitofp i32 %58 to double
  %60 = fdiv double %57, %59
  %61 = fsub double 1.000000e+00, %60
  %62 = load double, ptr %6, align 8
  %63 = fmul double %62, %61
  store double %63, ptr %6, align 8
  br label %45, !llvm.loop !4

64:                                               ; preds = %45
  %65 = load ptr, ptr %3, align 8
  %66 = getelementptr inbounds nuw %struct.BlockSamplerData, ptr %65, i32 0, i32 3
  %67 = load i32, ptr %66, align 4
  %68 = add i32 %67, 1
  store i32 %68, ptr %66, align 4
  %69 = load ptr, ptr %3, align 8
  %70 = getelementptr inbounds nuw %struct.BlockSamplerData, ptr %69, i32 0, i32 2
  %71 = load i32, ptr %70, align 8
  %72 = add i32 %71, 1
  store i32 %72, ptr %70, align 8
  store i32 %71, ptr %2, align 4
  store i32 1, ptr %8, align 4
  br label %73

73:                                               ; preds = %64, %26
  call void @llvm.lifetime.end.p0(i64 8, ptr %7) #6
  call void @llvm.lifetime.end.p0(i64 8, ptr %6) #6
  call void @llvm.lifetime.end.p0(i64 4, ptr %5) #6
  call void @llvm.lifetime.end.p0(i64 4, ptr %4) #6
  %74 = load i32, ptr %2, align 4
  ret i32 %74
}