; Function Attrs: nounwind uwtable
define dso_local i32 @BlockSampler_Next(ptr noundef %0) local_unnamed_addr #0 {
  %2 = load i32, ptr %0, align 8
  %3 = getelementptr inbounds nuw i8, ptr %0, i64 8
  %4 = load i32, ptr %3, align 8
  %5 = sub i32 %2, %4
  %6 = getelementptr inbounds nuw i8, ptr %0, i64 4
  %7 = load i32, ptr %6, align 4
  %8 = getelementptr inbounds nuw i8, ptr %0, i64 12
  %9 = load i32, ptr %8, align 4
  %10 = sub i32 %7, %9
  %.not = icmp ult i32 %10, %5
  br i1 %.not, label %11, label %30

11:                                               ; preds = %1
  %12 = getelementptr inbounds nuw i8, ptr %0, i64 16
  br label %13

13:                                               ; preds = %13, %11
  %14 = tail call double @pg_prng_double(ptr noundef nonnull %12) #6
  %15 = fcmp oeq double %14, 0.000000e+00
  br i1 %15, label %13, label %sampler_random_fract.exit, !prof !4, !llvm.loop !5

sampler_random_fract.exit:                        ; preds = %13
  %16 = sitofp i32 %10 to double
  %17 = uitofp i32 %5 to double
  %18 = fdiv double %16, %17
  %19 = fsub double 1.000000e+00, %18
  %20 = fcmp olt double %14, %19
  %storemerge.in.pre.pre = load i32, ptr %3, align 8
  br i1 %20, label %.lr.ph, label %._crit_edge

.lr.ph:                                           ; preds = %sampler_random_fract.exit, %.lr.ph
  %21 = phi i32 [ %22, %.lr.ph ], [ %storemerge.in.pre.pre, %sampler_random_fract.exit ]
  %.02026 = phi double [ %27, %.lr.ph ], [ %19, %sampler_random_fract.exit ]
  %.02125 = phi i32 [ %23, %.lr.ph ], [ %5, %sampler_random_fract.exit ]
  %22 = add i32 %21, 1
  %23 = add i32 %.02125, -1
  %24 = uitofp i32 %23 to double
  %25 = fdiv double %16, %24
  %26 = fsub double 1.000000e+00, %25
  %27 = fmul double %.02026, %26
  %28 = fcmp olt double %14, %27
  br i1 %28, label %.lr.ph, label %._crit_edge, !llvm.loop !7

._crit_edge:                                      ; preds = %.lr.ph, %sampler_random_fract.exit
  %storemerge.in.pre = phi i32 [ %storemerge.in.pre.pre, %sampler_random_fract.exit ], [ %22, %.lr.ph ]
  %29 = load i32, ptr %8, align 4
  br label %30

30:                                               ; preds = %1, %._crit_edge
  %storemerge.in = phi i32 [ %storemerge.in.pre, %._crit_edge ], [ %4, %1 ]
  %storemerge24.in = phi i32 [ %29, %._crit_edge ], [ %9, %1 ]
  %storemerge24 = add i32 %storemerge24.in, 1
  store i32 %storemerge24, ptr %8, align 4
  %storemerge = add i32 %storemerge.in, 1
  store i32 %storemerge, ptr %3, align 8
  ret i32 %storemerge.in
}